; Function Attrs: mustprogress nounwind uwtable
define dso_local noundef zeroext i1 @_ZN4llvm13RegBankSelect20runOnMachineFunctionERNS_15MachineFunctionE(ptr noundef nonnull align 8 dereferenceable(208) %0, ptr noundef nonnull align 8 dereferenceable(1041) %1) unnamed_addr #0 align 2 {
  %3 = getelementptr inbounds nuw i8, ptr %1, i64 344
  %4 = load i64, ptr %3, align 8
  %5 = and i64 %4, 16
  %.not = icmp eq i64 %5, 0
  br i1 %.not, label %6, label %14

6:                                                ; preds = %2
  %7 = load ptr, ptr %1, align 8
  %8 = getelementptr inbounds nuw i8, ptr %0, i64 192
  %9 = load i32, ptr %8, align 8
  %10 = tail call noundef zeroext i1 @_ZNK4llvm8Function14hasFnAttributeENS_9Attribute8AttrKindE(ptr noundef nonnull align 8 dereferenceable(136) %7, i32 noundef 46) #21
  br i1 %10, label %11, label %12

11:                                               ; preds = %6
  store i32 0, ptr %8, align 8
  br label %12

12:                                               ; preds = %11, %6
  tail call void @_ZN4llvm13RegBankSelect4initERNS_15MachineFunctionE(ptr noundef nonnull align 8 dereferenceable(208) %0, ptr noundef nonnull align 8 dereferenceable(1041) %1)
  %13 = tail call noundef zeroext i1 @_ZN4llvm13RegBankSelect19assignRegisterBanksERNS_15MachineFunctionE(ptr noundef nonnull align 8 dereferenceable(208) %0, ptr noundef nonnull align 8 dereferenceable(1041) %1)
  store i32 %9, ptr %8, align 8
  br label %14

14:                                               ; preds = %2, %12
  ret i1 false
}